target datalayout = "e-m:e-p270:32:32-p271:32:32-p272:64:64-i64:64-i128:128-f80:128-n8:16:32:64-S128"
target triple = "x86_64-pc-linux-gnu"

@zueci_iso8859_3_s = internal constant [6 x i16] [i16 8601, i16 8637, i16 -105, i16 -24866, i16 -105, i16 7902], align 2
@zueci_iso8859_3_u_sb = internal constant [28 x i8] c"\C6\E6\C5\E5\D8\F8\AB\BB\D5\F5\A6\B6\A1\B1\A9\B9\AC\BC\DE\FE\AA\BA\DD\FD\AF\BF\A2\FF", align 16

; Function Attrs: nounwind uwtable
define internal i32 @zueci_u_iso8859(i32 noundef %0, ptr noundef %1, ptr noundef %2, ptr noundef %3, i32 noundef %4, ptr noundef %5) #0 {
  %7 = alloca i32, align 4
  %8 = alloca i32, align 4
  %9 = alloca ptr, align 8
  %10 = alloca ptr, align 8
  %11 = alloca ptr, align 8
  %12 = alloca i32, align 4
  %13 = alloca ptr, align 8
  %14 = alloca i32, align 4
  %15 = alloca i32, align 4
  %16 = alloca i32, align 4
  store i32 %0, ptr %8, align 4
  store ptr %1, ptr %9, align 8
  store ptr %2, ptr %10, align 8
  store ptr %3, ptr %11, align 8
  store i32 %4, ptr %12, align 4
  store ptr %5, ptr %13, align 8
  %17 = load i32, ptr %8, align 4
  %18 = icmp ult i32 %17, 160
  br i1 %18, label %19, label %27

19:                                               ; preds = %6
  %20 = load i32, ptr %8, align 4
  %21 = icmp uge i32 %20, 128
  br i1 %21, label %22, label %23

22:                                               ; preds = %19
  store i32 0, ptr %7, align 4
  br label %93

23:                                               ; preds = %19
  %24 = load i32, ptr %8, align 4
  %25 = trunc i32 %24 to i8
  %26 = load ptr, ptr %13, align 8
  store i8 %25, ptr %26, align 1
  store i32 1, ptr %7, align 4
  br label %93

27:                                               ; preds = %6
  %28 = load i32, ptr %8, align 4
  %29 = icmp ule i32 %28, 255
  br i1 %29, label %30, label %50

30:                                               ; preds = %27
  %31 = load i32, ptr %8, align 4
  %32 = sub i32 %31, 160
  store i32 %32, ptr %15, align 4
  %33 = load ptr, ptr %9, align 8
  %34 = load i32, ptr %15, align 4
  %35 = lshr i32 %34, 4
  %36 = zext i32 %35 to i64
  %37 = getelementptr inbounds i16, ptr %33, i64 %36
  %38 = load i16, ptr %37, align 2
  %39 = zext i16 %38 to i32
  %40 = load i32, ptr %15, align 4
  %41 = and i32 %40, 15
  %42 = shl i32 1, %41
  %43 = and i32 %39, %42
  %44 = icmp ne i32 %43, 0
  br i1 %44, label %45, label %49

45:                                               ; preds = %30
  %46 = load i32, ptr %8, align 4
  %47 = trunc i32 %46 to i8
  %48 = load ptr, ptr %13, align 8
  store i8 %47, ptr %48, align 1
  store i32 1, ptr %7, align 4
  br label %93

49:                                               ; preds = %30
  br label %50

50:                                               ; preds = %49, %27
  store i32 0, ptr %14, align 4
  br label %51

51:                                               ; preds = %91, %50
  %52 = load i32, ptr %14, align 4
  %53 = load i32, ptr %12, align 4
  %54 = icmp sle i32 %52, %53
  br i1 %54, label %55, label %92

55:                                               ; preds = %51
  %56 = load i32, ptr %14, align 4
  %57 = load i32, ptr %12, align 4
  %58 = add nsw i32 %56, %57
  %59 = ashr i32 %58, 1
  store i32 %59, ptr %16, align 4
  %60 = load ptr, ptr %10, align 8
  %61 = load i32, ptr %16, align 4
  %62 = sext i32 %61 to i64
  %63 = getelementptr inbounds i16, ptr %60, i64 %62
  %64 = load i16, ptr %63, align 2
  %65 = zext i16 %64 to i32
  %66 = load i32, ptr %8, align 4
  %67 = icmp ult i32 %65, %66
  br i1 %67, label %68, label %71

68:                                               ; preds = %55
  %69 = load i32, ptr %16, align 4
  %70 = add nsw i32 %69, 1
  store i32 %70, ptr %14, align 4
  br label %91

71:                                               ; preds = %55
  %72 = load ptr, ptr %10, align 8
  %73 = load i32, ptr %16, align 4
  %74 = sext i32 %73 to i64
  %75 = getelementptr inbounds i16, ptr %72, i64 %74
  %76 = load i16, ptr %75, align 2
  %77 = zext i16 %76 to i32
  %78 = load i32, ptr %8, align 4
  %79 = icmp ugt i32 %77, %78
  br i1 %79, label %80, label %83

80:                                               ; preds = %71
  %81 = load i32, ptr %16, align 4
  %82 = sub nsw i32 %81, 1
  store i32 %82, ptr %12, align 4
  br label %90

83:                                               ; preds = %71
  %84 = load ptr, ptr %11, align 8
  %85 = load i32, ptr %16, align 4
  %86 = sext i32 %85 to i64
  %87 = getelementptr inbounds i8, ptr %84, i64 %86
  %88 = load i8, ptr %87, align 1
  %89 = load ptr, ptr %13, align 8
  store i8 %88, ptr %89, align 1
  store i32 1, ptr %7, align 4
  br label %93

90:                                               ; preds = %80
  br label %91

91:                                               ; preds = %90, %68
  br label %51, !llvm.loop !32

92:                                               ; preds = %51
  store i32 0, ptr %7, align 4
  br label %93

93:                                               ; preds = %92, %83, %45, %23, %22
  %94 = load i32, ptr %7, align 4
  ret i32 %94
}

; Function Attrs: nounwind uwtable
define internal i32 @zueci_u_iso8859_3(i32 noundef %0, ptr noundef %1) #0 {
  %3 = alloca i32, align 4
  %4 = alloca ptr, align 8
  store i32 %0, ptr %3, align 4
  store ptr %1, ptr %4, align 8
  %5 = load i32, ptr %3, align 4
  %6 = load ptr, ptr %4, align 8
  %7 = call i32 @zueci_u_iso8859(i32 noundef %5, ptr noundef @zueci_iso8859_3_s, ptr noundef @zueci_iso8859_3_u_u, ptr noundef @zueci_iso8859_3_u_sb, i32 noundef 27, ptr noundef %6)
  ret i32 %7
}